; Function Attrs: mustprogress uwtable
define hidden void @_ZN13Z3_solver_ref11assert_exprEP4expr(ptr noundef nonnull readonly align 8 captures(none) dereferenceable(128) %0, ptr noundef %1) local_unnamed_addr #3 align 2 {
  %3 = getelementptr inbounds nuw i8, ptr %0, i64 64
  %4 = load ptr, ptr %3, align 8, !tbaa !83
  %.not = icmp eq ptr %4, null
  br i1 %.not, label %7, label %5

5:                                                ; preds = %2
  tail call void @_ZN11ast_pp_util7collectEP4expr(ptr noundef nonnull align 8 dereferenceable(1240) %4, ptr noundef %1)
  %6 = getelementptr inbounds nuw i8, ptr %4, i64 704
  tail call void @_ZN11ast_pp_util13display_declsERSo(ptr noundef nonnull align 8 dereferenceable(1240) %4, ptr noundef nonnull align 8 dereferenceable(8) %6)
  tail call void @_ZN11ast_pp_util14display_assertERSoP4exprb(ptr noundef nonnull align 8 dereferenceable(1240) %4, ptr noundef nonnull align 8 dereferenceable(8) %6, ptr noundef %1, i1 noundef zeroext true)
  br label %7

7:                                                ; preds = %5, %2
  %8 = getelementptr inbounds nuw i8, ptr %0, i64 32
  %9 = load ptr, ptr %8, align 8, !tbaa !84
  tail call void @_ZN6solver11assert_exprEP4expr(ptr noundef nonnull align 8 dereferenceable(96) %9, ptr noundef %1)
  ret void
}